#include <math.h>
#include <stdio.h>
#include <stdlib.h>
#include <string.h>

void main()
{
   int di,number,k,j,n;
   n=1;
   di=10;
   scanf("%d",&number);
   do
   {
	   j=number-di;
   if(j>0)
   {
   n=n+1;
   di=di*10;
   }
   }
   while(j>0);
   j=0;
   di=10;
   do
   {
	   k=((number%di)-(number%(di/10)))/(di/10);
	   printf("%d",k);
       di=di*10;
	   j=j+1;       
   }
while(j<n);
}


