; ModuleID = '56/1758.c'
source_filename = "56/1758.c"
target datalayout = "e-m:e-p270:32:32-p271:32:32-p272:64:64-i64:64-f80:128-n8:16:32:64-S128"
target triple = "x86_64-pc-linux-gnu"

@.str = private unnamed_addr constant [3 x i8] c"%d\00", align 1

; Function Attrs: noinline nounwind uwtable
define dso_local void @main() #0 {
  %1 = alloca i32, align 4
  %2 = alloca i32, align 4
  %3 = alloca i32, align 4
  %4 = alloca i32, align 4
  %5 = alloca i32, align 4
  store i32 1, i32* %5, align 4
  store i32 10, i32* %1, align 4
  %6 = call i32 (i8*, ...) @__isoc99_scanf(i8* getelementptr inbounds ([3 x i8], [3 x i8]* @.str, i64 0, i64 0), i32* %2)
  br label %7

7:                                                ; preds = %19, %0
  %8 = load i32, i32* %2, align 4
  %9 = load i32, i32* %1, align 4
  %10 = sub nsw i32 %8, %9
  store i32 %10, i32* %4, align 4
  %11 = load i32, i32* %4, align 4
  %12 = icmp sgt i32 %11, 0
  br i1 %12, label %13, label %18

13:                                               ; preds = %7
  %14 = load i32, i32* %5, align 4
  %15 = add nsw i32 %14, 1
  store i32 %15, i32* %5, align 4
  %16 = load i32, i32* %1, align 4
  %17 = mul nsw i32 %16, 10
  store i32 %17, i32* %1, align 4
  br label %18

18:                                               ; preds = %13, %7
  br label %19

19:                                               ; preds = %18
  %20 = load i32, i32* %4, align 4
  %21 = icmp sgt i32 %20, 0
  br i1 %21, label %7, label %22

22:                                               ; preds = %19
  store i32 0, i32* %4, align 4
  store i32 10, i32* %1, align 4
  br label %23

23:                                               ; preds = %41, %22
  %24 = load i32, i32* %2, align 4
  %25 = load i32, i32* %1, align 4
  %26 = srem i32 %24, %25
  %27 = load i32, i32* %2, align 4
  %28 = load i32, i32* %1, align 4
  %29 = sdiv i32 %28, 10
  %30 = srem i32 %27, %29
  %31 = sub nsw i32 %26, %30
  %32 = load i32, i32* %1, align 4
  %33 = sdiv i32 %32, 10
  %34 = sdiv i32 %31, %33
  store i32 %34, i32* %3, align 4
  %35 = load i32, i32* %3, align 4
  %36 = call i32 (i8*, ...) @printf(i8* getelementptr inbounds ([3 x i8], [3 x i8]* @.str, i64 0, i64 0), i32 %35)
  %37 = load i32, i32* %1, align 4
  %38 = mul nsw i32 %37, 10
  store i32 %38, i32* %1, align 4
  %39 = load i32, i32* %4, align 4
  %40 = add nsw i32 %39, 1
  store i32 %40, i32* %4, align 4
  br label %41

41:                                               ; preds = %23
  %42 = load i32, i32* %4, align 4
  %43 = load i32, i32* %5, align 4
  %44 = icmp slt i32 %42, %43
  br i1 %44, label %23, label %45

45:                                               ; preds = %41
  ret void
}

declare dso_local i32 @__isoc99_scanf(i8*, ...) #1

declare dso_local i32 @printf(i8*, ...) #1


!llvm.module.flags = !{!0}
!llvm.ident = !{!1}

!0 = !{i32 1, !"wchar_size", i32 4}
!1 = !{!"clang version 10.0.0-4ubuntu1 "}
