; ModuleID = 'source-C-CXX/55/1758.c'
source_filename = "source-C-CXX/55/1758.c"
target datalayout = "e-m:e-p270:32:32-p271:32:32-p272:64:64-i64:64-f80:128-n8:16:32:64-S128"
target triple = "x86_64-pc-linux-gnu"

@.str = private unnamed_addr constant [3 x i8] c"%d\00", align 1

; Function Attrs: nofree nounwind sspstrong uwtable
define dso_local void @main() local_unnamed_addr #0 {
  %1 = alloca i32, align 4
  %2 = bitcast i32* %1 to i8*
  call void @llvm.lifetime.start.p0i8(i64 4, i8* nonnull %2) #3
  %3 = call i32 (i8*, ...) @__isoc99_scanf(i8* getelementptr inbounds ([3 x i8], [3 x i8]* @.str, i64 0, i64 0), i32* nonnull %1)
  %4 = load i32, i32* %1, align 4, !tbaa !5
  br label %5

5:                                                ; preds = %5, %0
  %6 = phi i32 [ 10, %0 ], [ %10, %5 ]
  %7 = phi i32 [ 1, %0 ], [ %9, %5 ]
  %8 = icmp sgt i32 %4, %6
  %9 = add nuw nsw i32 %7, 1
  %10 = mul nsw i32 %6, 10
  br i1 %8, label %5, label %11, !llvm.loop !9

11:                                               ; preds = %5, %23
  %12 = phi i32 [ %25, %23 ], [ %4, %5 ]
  %13 = phi i32 [ %24, %23 ], [ 10, %5 ]
  %14 = phi i32 [ %21, %23 ], [ 0, %5 ]
  %15 = srem i32 %12, %13
  %16 = udiv i32 %13, 10
  %17 = srem i32 %12, %16
  %18 = sub nsw i32 %15, %17
  %19 = sdiv i32 %18, %16
  %20 = call i32 (i8*, ...) @printf(i8* nonnull dereferenceable(1) getelementptr inbounds ([3 x i8], [3 x i8]* @.str, i64 0, i64 0), i32 %19)
  %21 = add nuw nsw i32 %14, 1
  %22 = icmp eq i32 %21, %7
  br i1 %22, label %26, label %23, !llvm.loop !11

23:                                               ; preds = %11
  %24 = mul nsw i32 %13, 10
  %25 = load i32, i32* %1, align 4, !tbaa !5
  br label %11

26:                                               ; preds = %11
  call void @llvm.lifetime.end.p0i8(i64 4, i8* nonnull %2) #3
  ret void
}

; Function Attrs: argmemonly mustprogress nofree nosync nounwind willreturn
declare void @llvm.lifetime.start.p0i8(i64 immarg, i8* nocapture) #1

; Function Attrs: nofree nounwind
declare noundef i32 @__isoc99_scanf(i8* nocapture noundef readonly, ...) local_unnamed_addr #2

; Function Attrs: nofree nounwind
declare noundef i32 @printf(i8* nocapture noundef readonly, ...) local_unnamed_addr #2

; Function Attrs: argmemonly mustprogress nofree nosync nounwind willreturn
declare void @llvm.lifetime.end.p0i8(i64 immarg, i8* nocapture) #1


!llvm.module.flags = !{!0, !1, !2, !3}
!llvm.ident = !{!4}

!0 = !{i32 1, !"wchar_size", i32 4}
!1 = !{i32 7, !"PIC Level", i32 2}
!2 = !{i32 7, !"PIE Level", i32 2}
!3 = !{i32 7, !"uwtable", i32 1}
!4 = !{!"clang version 13.0.0"}
!5 = !{!6, !6, i64 0}
!6 = !{!"int", !7, i64 0}
!7 = !{!"omnipotent char", !8, i64 0}
!8 = !{!"Simple C/C++ TBAA"}
!9 = distinct !{!9, !10}
!10 = !{!"llvm.loop.mustprogress"}
!11 = distinct !{!11, !10}
